target datalayout = "e-m:e-p270:32:32-p271:32:32-p272:64:64-i64:64-i128:128-f80:128-n8:16:32:64-S128"
target triple = "x86_64-pc-linux-gnu"

%struct.lua_State = type { %struct.GCRef, i8, i8, i8, i8, %struct.MRef, %struct.GCRef, ptr, ptr, %struct.MRef, %struct.MRef, %struct.GCRef, %struct.GCRef, ptr, i32 }
%struct.MRef = type { i64 }
%struct.GCRef = type { i64 }
%union.TValue = type { i64 }

; Function Attrs: nounwind uwtable
define internal ptr @getthread(ptr noundef %0, ptr noundef %1) #0 {
  %3 = alloca ptr, align 8
  %4 = alloca ptr, align 8
  %5 = alloca ptr, align 8
  store ptr %0, ptr %4, align 8, !tbaa !4
  store ptr %1, ptr %5, align 8, !tbaa !46
  %6 = load ptr, ptr %4, align 8, !tbaa !4
  %7 = getelementptr inbounds nuw %struct.lua_State, ptr %6, i32 0, i32 7
  %8 = load ptr, ptr %7, align 8, !tbaa !18
  %9 = load ptr, ptr %4, align 8, !tbaa !4
  %10 = getelementptr inbounds nuw %struct.lua_State, ptr %9, i32 0, i32 8
  %11 = load ptr, ptr %10, align 8, !tbaa !9
  %12 = icmp ult ptr %8, %11
  br i1 %12, label %13, label %30

13:                                               ; preds = %2
  %14 = load ptr, ptr %4, align 8, !tbaa !4
  %15 = getelementptr inbounds nuw %struct.lua_State, ptr %14, i32 0, i32 7
  %16 = load ptr, ptr %15, align 8, !tbaa !18
  %17 = load i64, ptr %16, align 8, !tbaa !17
  %18 = ashr i64 %17, 47
  %19 = trunc i64 %18 to i32
  %20 = icmp eq i32 %19, -7
  br i1 %20, label %21, label %30

21:                                               ; preds = %13
  %22 = load ptr, ptr %5, align 8, !tbaa !46
  store i32 1, ptr %22, align 4, !tbaa !19
  %23 = load ptr, ptr %4, align 8, !tbaa !4
  %24 = getelementptr inbounds nuw %struct.lua_State, ptr %23, i32 0, i32 7
  %25 = load ptr, ptr %24, align 8, !tbaa !18
  %26 = getelementptr inbounds nuw %struct.GCRef, ptr %25, i32 0, i32 0
  %27 = load i64, ptr %26, align 8, !tbaa !17
  %28 = and i64 %27, 140737488355327
  %29 = inttoptr i64 %28 to ptr
  store ptr %29, ptr %3, align 8
  br label %33

30:                                               ; preds = %13, %2
  %31 = load ptr, ptr %5, align 8, !tbaa !46
  store i32 0, ptr %31, align 4, !tbaa !19
  %32 = load ptr, ptr %4, align 8, !tbaa !4
  store ptr %32, ptr %3, align 8
  br label %33

33:                                               ; preds = %30, %21
  %34 = load ptr, ptr %3, align 8
  ret ptr %34
}

; Function Attrs: nounwind uwtable
define internal i32 @lj_cf_debug_traceback(ptr noundef %0) #0 {
  %2 = alloca ptr, align 8
  %3 = alloca i32, align 4
  %4 = alloca ptr, align 8
  %5 = alloca ptr, align 8
  store ptr %0, ptr %2, align 8, !tbaa !4
  call void @llvm.lifetime.start.p0(i64 4, ptr %3) #8
  call void @llvm.lifetime.start.p0(i64 8, ptr %4) #8
  %6 = load ptr, ptr %2, align 8, !tbaa !4
  %7 = call ptr @getthread(ptr noundef %6, ptr noundef %3)
  store ptr %7, ptr %4, align 8, !tbaa !4
  call void @llvm.lifetime.start.p0(i64 8, ptr %5) #8
  %8 = load ptr, ptr %2, align 8, !tbaa !4
  %9 = load i32, ptr %3, align 4, !tbaa !19
  %10 = add nsw i32 %9, 1
  %11 = call ptr @lua_tolstring(ptr noundef %8, i32 noundef %10, ptr noundef null)
  store ptr %11, ptr %5, align 8, !tbaa !20
  %12 = load ptr, ptr %5, align 8, !tbaa !20
  %13 = icmp eq ptr %12, null
  br i1 %13, label %14, label %35

14:                                               ; preds = %1
  %15 = load ptr, ptr %2, align 8, !tbaa !4
  %16 = getelementptr inbounds nuw %struct.lua_State, ptr %15, i32 0, i32 8
  %17 = load ptr, ptr %16, align 8, !tbaa !9
  %18 = load ptr, ptr %2, align 8, !tbaa !4
  %19 = getelementptr inbounds nuw %struct.lua_State, ptr %18, i32 0, i32 7
  %20 = load ptr, ptr %19, align 8, !tbaa !18
  %21 = load i32, ptr %3, align 4, !tbaa !19
  %22 = sext i32 %21 to i64
  %23 = getelementptr inbounds %union.TValue, ptr %20, i64 %22
  %24 = icmp ugt ptr %17, %23
  br i1 %24, label %25, label %35

25:                                               ; preds = %14
  %26 = load ptr, ptr %2, align 8, !tbaa !4
  %27 = getelementptr inbounds nuw %struct.lua_State, ptr %26, i32 0, i32 7
  %28 = load ptr, ptr %27, align 8, !tbaa !18
  %29 = load i32, ptr %3, align 4, !tbaa !19
  %30 = sext i32 %29 to i64
  %31 = getelementptr inbounds %union.TValue, ptr %28, i64 %30
  %32 = getelementptr inbounds %union.TValue, ptr %31, i64 1
  %33 = load ptr, ptr %2, align 8, !tbaa !4
  %34 = getelementptr inbounds nuw %struct.lua_State, ptr %33, i32 0, i32 8
  store ptr %32, ptr %34, align 8, !tbaa !9
  br label %47

35:                                               ; preds = %14, %1
  %36 = load ptr, ptr %2, align 8, !tbaa !4
  %37 = load ptr, ptr %4, align 8, !tbaa !4
  %38 = load ptr, ptr %5, align 8, !tbaa !20
  %39 = load ptr, ptr %2, align 8, !tbaa !4
  %40 = load i32, ptr %3, align 4, !tbaa !19
  %41 = add nsw i32 %40, 2
  %42 = load ptr, ptr %2, align 8, !tbaa !4
  %43 = load ptr, ptr %4, align 8, !tbaa !4
  %44 = icmp eq ptr %42, %43
  %45 = zext i1 %44 to i32
  %46 = call i32 @lj_lib_optint(ptr noundef %39, i32 noundef %41, i32 noundef %45)
  call void @luaL_traceback(ptr noundef %36, ptr noundef %37, ptr noundef %38, i32 noundef %46)
  br label %47

47:                                               ; preds = %35, %25
  call void @llvm.lifetime.end.p0(i64 8, ptr %5) #8
  call void @llvm.lifetime.end.p0(i64 8, ptr %4) #8
  call void @llvm.lifetime.end.p0(i64 4, ptr %3) #8
  ret i32 1
}