; Function Attrs: nounwind uwtable
define internal noundef i32 @lj_cf_debug_traceback(ptr noundef %0) #0 {
  %2 = getelementptr inbounds nuw i8, ptr %0, i64 32
  %3 = load ptr, ptr %2, align 8, !tbaa !16
  %4 = getelementptr inbounds nuw i8, ptr %0, i64 40
  %5 = load ptr, ptr %4, align 8, !tbaa !4
  %6 = icmp ult ptr %3, %5
  br i1 %6, label %7, label %getthread.exit

7:                                                ; preds = %1
  %8 = load i64, ptr %3, align 8, !tbaa !15
  %.mask.i = and i64 %8, -140737488355328
  %9 = icmp eq i64 %.mask.i, -985162418487296
  br i1 %9, label %10, label %getthread.exit

10:                                               ; preds = %7
  %11 = and i64 %8, 140737488355327
  %12 = inttoptr i64 %11 to ptr
  br label %getthread.exit

getthread.exit:                                   ; preds = %1, %7, %10
  %.0 = phi i32 [ 1, %10 ], [ 0, %7 ], [ 0, %1 ]
  %.0.i = phi ptr [ %12, %10 ], [ %0, %7 ], [ %0, %1 ]
  %13 = add nuw nsw i32 %.0, 1
  %14 = tail call ptr @lua_tolstring(ptr noundef nonnull %0, i32 noundef %13, ptr noundef null) #10
  %15 = icmp eq ptr %14, null
  br i1 %15, label %16, label %24

16:                                               ; preds = %getthread.exit
  %17 = load ptr, ptr %4, align 8, !tbaa !4
  %18 = load ptr, ptr %2, align 8, !tbaa !16
  %19 = zext nneg i32 %.0 to i64
  %20 = getelementptr inbounds nuw %union.TValue, ptr %18, i64 %19
  %21 = icmp ugt ptr %17, %20
  br i1 %21, label %22, label %24

22:                                               ; preds = %16
  %23 = getelementptr inbounds nuw i8, ptr %20, i64 8
  store ptr %23, ptr %4, align 8, !tbaa !4
  br label %29

24:                                               ; preds = %16, %getthread.exit
  %25 = or disjoint i32 %.0, 2
  %26 = icmp eq ptr %0, %.0.i
  %27 = zext i1 %26 to i32
  %28 = tail call i32 @lj_lib_optint(ptr noundef nonnull %0, i32 noundef %25, i32 noundef %27) #10
  tail call void @luaL_traceback(ptr noundef nonnull %0, ptr noundef %.0.i, ptr noundef %14, i32 noundef %28) #10
  br label %29

29:                                               ; preds = %24, %22
  ret i32 1
}